target datalayout = "e-m:e-p270:32:32-p271:32:32-p272:64:64-i64:64-i128:128-f80:128-n8:16:32:64-S128"
target triple = "x86_64-pc-linux-gnu"

%struct.mspack_system = type { ptr, ptr, ptr, ptr, ptr, ptr, ptr, ptr, ptr, ptr, ptr }
%struct.mscab_decompressor_p = type { %struct.mscab_decompressor, ptr, ptr, i32, i32, i32, i32, i32, i32 }
%struct.mscab_decompressor = type { ptr, ptr, ptr, ptr, ptr, ptr, ptr, ptr }
%struct.mscabd_decompress_state = type { ptr, ptr, i32, i32, i64, %struct.mspack_system, i32, ptr, ptr, ptr, ptr, ptr, ptr, ptr, [65536 x i8] }
%struct.noned_state = type { ptr, ptr, ptr, ptr, i32 }

; Function Attrs: nounwind uwtable
define internal ptr @noned_init(ptr noundef %0, ptr noundef %1, ptr noundef %2, i32 noundef %3) #0 {
  %5 = alloca ptr, align 8
  %6 = alloca ptr, align 8
  %7 = alloca ptr, align 8
  %8 = alloca i32, align 4
  %9 = alloca ptr, align 8
  %10 = alloca ptr, align 8
  store ptr %0, ptr %5, align 8, !tbaa !3
  store ptr %1, ptr %6, align 8, !tbaa !38
  store ptr %2, ptr %7, align 8, !tbaa !38
  store i32 %3, ptr %8, align 4, !tbaa !48
  call void @llvm.lifetime.start.p0(i64 8, ptr %9) #4
  %11 = load ptr, ptr %5, align 8, !tbaa !3
  %12 = getelementptr inbounds nuw %struct.mspack_system, ptr %11, i32 0, i32 7
  %13 = load ptr, ptr %12, align 8, !tbaa !10
  %14 = load ptr, ptr %5, align 8, !tbaa !3
  %15 = call ptr %13(ptr noundef %14, i64 noundef 40)
  store ptr %15, ptr %9, align 8, !tbaa !148
  call void @llvm.lifetime.start.p0(i64 8, ptr %10) #4
  %16 = load ptr, ptr %5, align 8, !tbaa !3
  %17 = getelementptr inbounds nuw %struct.mspack_system, ptr %16, i32 0, i32 7
  %18 = load ptr, ptr %17, align 8, !tbaa !10
  %19 = load ptr, ptr %5, align 8, !tbaa !3
  %20 = load i32, ptr %8, align 4, !tbaa !48
  %21 = sext i32 %20 to i64
  %22 = call ptr %18(ptr noundef %19, i64 noundef %21)
  store ptr %22, ptr %10, align 8, !tbaa !33
  %23 = load ptr, ptr %9, align 8, !tbaa !148
  %24 = icmp ne ptr %23, null
  br i1 %24, label %25, label %44

25:                                               ; preds = %4
  %26 = load ptr, ptr %10, align 8, !tbaa !33
  %27 = icmp ne ptr %26, null
  br i1 %27, label %28, label %44

28:                                               ; preds = %25
  %29 = load ptr, ptr %5, align 8, !tbaa !3
  %30 = load ptr, ptr %9, align 8, !tbaa !148
  %31 = getelementptr inbounds nuw %struct.noned_state, ptr %30, i32 0, i32 0
  store ptr %29, ptr %31, align 8, !tbaa !152
  %32 = load ptr, ptr %6, align 8, !tbaa !38
  %33 = load ptr, ptr %9, align 8, !tbaa !148
  %34 = getelementptr inbounds nuw %struct.noned_state, ptr %33, i32 0, i32 1
  store ptr %32, ptr %34, align 8, !tbaa !153
  %35 = load ptr, ptr %7, align 8, !tbaa !38
  %36 = load ptr, ptr %9, align 8, !tbaa !148
  %37 = getelementptr inbounds nuw %struct.noned_state, ptr %36, i32 0, i32 2
  store ptr %35, ptr %37, align 8, !tbaa !155
  %38 = load ptr, ptr %10, align 8, !tbaa !33
  %39 = load ptr, ptr %9, align 8, !tbaa !148
  %40 = getelementptr inbounds nuw %struct.noned_state, ptr %39, i32 0, i32 3
  store ptr %38, ptr %40, align 8, !tbaa !154
  %41 = load i32, ptr %8, align 4, !tbaa !48
  %42 = load ptr, ptr %9, align 8, !tbaa !148
  %43 = getelementptr inbounds nuw %struct.noned_state, ptr %42, i32 0, i32 4
  store i32 %41, ptr %43, align 8, !tbaa !150
  br label %53

44:                                               ; preds = %25, %4
  %45 = load ptr, ptr %5, align 8, !tbaa !3
  %46 = getelementptr inbounds nuw %struct.mspack_system, ptr %45, i32 0, i32 8
  %47 = load ptr, ptr %46, align 8, !tbaa !55
  %48 = load ptr, ptr %10, align 8, !tbaa !33
  call void %47(ptr noundef %48)
  %49 = load ptr, ptr %5, align 8, !tbaa !3
  %50 = getelementptr inbounds nuw %struct.mspack_system, ptr %49, i32 0, i32 8
  %51 = load ptr, ptr %50, align 8, !tbaa !55
  %52 = load ptr, ptr %9, align 8, !tbaa !148
  call void %51(ptr noundef %52)
  store ptr null, ptr %9, align 8, !tbaa !148
  br label %53

53:                                               ; preds = %44, %28
  %54 = load ptr, ptr %9, align 8, !tbaa !148
  call void @llvm.lifetime.end.p0(i64 8, ptr %10) #4
  call void @llvm.lifetime.end.p0(i64 8, ptr %9) #4
  ret ptr %54
}

; Function Attrs: nounwind uwtable
define internal i32 @cabd_init_decomp(ptr noundef %0, i32 noundef %1) #0 {
  %3 = alloca i32, align 4
  %4 = alloca ptr, align 8
  %5 = alloca i32, align 4
  %6 = alloca ptr, align 8
  %7 = alloca i32, align 4
  store ptr %0, ptr %4, align 8, !tbaa !8
  store i32 %1, ptr %5, align 4, !tbaa !48
  call void @llvm.lifetime.start.p0(i64 8, ptr %6) #4
  %8 = load ptr, ptr %4, align 8, !tbaa !8
  store ptr %8, ptr %6, align 8, !tbaa !38
  %9 = load i32, ptr %5, align 4, !tbaa !48
  %10 = load ptr, ptr %4, align 8, !tbaa !8
  %11 = getelementptr inbounds nuw %struct.mscab_decompressor_p, ptr %10, i32 0, i32 1
  %12 = load ptr, ptr %11, align 8, !tbaa !25
  %13 = getelementptr inbounds nuw %struct.mscabd_decompress_state, ptr %12, i32 0, i32 6
  store i32 %9, ptr %13, align 8, !tbaa !106
  %14 = load i32, ptr %5, align 4, !tbaa !48
  %15 = and i32 %14, 15
  switch i32 %15, label %101 [
    i32 0, label %16
    i32 1, label %35
    i32 2, label %57
    i32 3, label %79
  ]

16:                                               ; preds = %2
  %17 = load ptr, ptr %4, align 8, !tbaa !8
  %18 = getelementptr inbounds nuw %struct.mscab_decompressor_p, ptr %17, i32 0, i32 1
  %19 = load ptr, ptr %18, align 8, !tbaa !25
  %20 = getelementptr inbounds nuw %struct.mscabd_decompress_state, ptr %19, i32 0, i32 7
  store ptr @noned_decompress, ptr %20, align 8, !tbaa !105
  %21 = load ptr, ptr %4, align 8, !tbaa !8
  %22 = getelementptr inbounds nuw %struct.mscab_decompressor_p, ptr %21, i32 0, i32 1
  %23 = load ptr, ptr %22, align 8, !tbaa !25
  %24 = getelementptr inbounds nuw %struct.mscabd_decompress_state, ptr %23, i32 0, i32 5
  %25 = load ptr, ptr %6, align 8, !tbaa !38
  %26 = load ptr, ptr %6, align 8, !tbaa !38
  %27 = load ptr, ptr %4, align 8, !tbaa !8
  %28 = getelementptr inbounds nuw %struct.mscab_decompressor_p, ptr %27, i32 0, i32 3
  %29 = load i32, ptr %28, align 8, !tbaa !29
  %30 = call ptr @noned_init(ptr noundef %24, ptr noundef %25, ptr noundef %26, i32 noundef %29)
  %31 = load ptr, ptr %4, align 8, !tbaa !8
  %32 = getelementptr inbounds nuw %struct.mscab_decompressor_p, ptr %31, i32 0, i32 1
  %33 = load ptr, ptr %32, align 8, !tbaa !25
  %34 = getelementptr inbounds nuw %struct.mscabd_decompress_state, ptr %33, i32 0, i32 8
  store ptr %30, ptr %34, align 8, !tbaa !92
  br label %104

35:                                               ; preds = %2
  %36 = load ptr, ptr %4, align 8, !tbaa !8
  %37 = getelementptr inbounds nuw %struct.mscab_decompressor_p, ptr %36, i32 0, i32 1
  %38 = load ptr, ptr %37, align 8, !tbaa !25
  %39 = getelementptr inbounds nuw %struct.mscabd_decompress_state, ptr %38, i32 0, i32 7
  store ptr @mszipd_decompress, ptr %39, align 8, !tbaa !105
  %40 = load ptr, ptr %4, align 8, !tbaa !8
  %41 = getelementptr inbounds nuw %struct.mscab_decompressor_p, ptr %40, i32 0, i32 1
  %42 = load ptr, ptr %41, align 8, !tbaa !25
  %43 = getelementptr inbounds nuw %struct.mscabd_decompress_state, ptr %42, i32 0, i32 5
  %44 = load ptr, ptr %6, align 8, !tbaa !38
  %45 = load ptr, ptr %6, align 8, !tbaa !38
  %46 = load ptr, ptr %4, align 8, !tbaa !8
  %47 = getelementptr inbounds nuw %struct.mscab_decompressor_p, ptr %46, i32 0, i32 3
  %48 = load i32, ptr %47, align 8, !tbaa !29
  %49 = load ptr, ptr %4, align 8, !tbaa !8
  %50 = getelementptr inbounds nuw %struct.mscab_decompressor_p, ptr %49, i32 0, i32 5
  %51 = load i32, ptr %50, align 8, !tbaa !28
  %52 = call ptr @mszipd_init(ptr noundef %43, ptr noundef %44, ptr noundef %45, i32 noundef %48, i32 noundef %51)
  %53 = load ptr, ptr %4, align 8, !tbaa !8
  %54 = getelementptr inbounds nuw %struct.mscab_decompressor_p, ptr %53, i32 0, i32 1
  %55 = load ptr, ptr %54, align 8, !tbaa !25
  %56 = getelementptr inbounds nuw %struct.mscabd_decompress_state, ptr %55, i32 0, i32 8
  store ptr %52, ptr %56, align 8, !tbaa !92
  br label %104

57:                                               ; preds = %2
  %58 = load ptr, ptr %4, align 8, !tbaa !8
  %59 = getelementptr inbounds nuw %struct.mscab_decompressor_p, ptr %58, i32 0, i32 1
  %60 = load ptr, ptr %59, align 8, !tbaa !25
  %61 = getelementptr inbounds nuw %struct.mscabd_decompress_state, ptr %60, i32 0, i32 7
  store ptr @qtmd_decompress, ptr %61, align 8, !tbaa !105
  %62 = load ptr, ptr %4, align 8, !tbaa !8
  %63 = getelementptr inbounds nuw %struct.mscab_decompressor_p, ptr %62, i32 0, i32 1
  %64 = load ptr, ptr %63, align 8, !tbaa !25
  %65 = getelementptr inbounds nuw %struct.mscabd_decompress_state, ptr %64, i32 0, i32 5
  %66 = load ptr, ptr %6, align 8, !tbaa !38
  %67 = load ptr, ptr %6, align 8, !tbaa !38
  %68 = load i32, ptr %5, align 4, !tbaa !48
  %69 = lshr i32 %68, 8
  %70 = and i32 %69, 31
  %71 = load ptr, ptr %4, align 8, !tbaa !8
  %72 = getelementptr inbounds nuw %struct.mscab_decompressor_p, ptr %71, i32 0, i32 3
  %73 = load i32, ptr %72, align 8, !tbaa !29
  %74 = call ptr @qtmd_init(ptr noundef %65, ptr noundef %66, ptr noundef %67, i32 noundef %70, i32 noundef %73)
  %75 = load ptr, ptr %4, align 8, !tbaa !8
  %76 = getelementptr inbounds nuw %struct.mscab_decompressor_p, ptr %75, i32 0, i32 1
  %77 = load ptr, ptr %76, align 8, !tbaa !25
  %78 = getelementptr inbounds nuw %struct.mscabd_decompress_state, ptr %77, i32 0, i32 8
  store ptr %74, ptr %78, align 8, !tbaa !92
  br label %104

79:                                               ; preds = %2
  %80 = load ptr, ptr %4, align 8, !tbaa !8
  %81 = getelementptr inbounds nuw %struct.mscab_decompressor_p, ptr %80, i32 0, i32 1
  %82 = load ptr, ptr %81, align 8, !tbaa !25
  %83 = getelementptr inbounds nuw %struct.mscabd_decompress_state, ptr %82, i32 0, i32 7
  store ptr @lzxd_decompress, ptr %83, align 8, !tbaa !105
  %84 = load ptr, ptr %4, align 8, !tbaa !8
  %85 = getelementptr inbounds nuw %struct.mscab_decompressor_p, ptr %84, i32 0, i32 1
  %86 = load ptr, ptr %85, align 8, !tbaa !25
  %87 = getelementptr inbounds nuw %struct.mscabd_decompress_state, ptr %86, i32 0, i32 5
  %88 = load ptr, ptr %6, align 8, !tbaa !38
  %89 = load ptr, ptr %6, align 8, !tbaa !38
  %90 = load i32, ptr %5, align 4, !tbaa !48
  %91 = lshr i32 %90, 8
  %92 = and i32 %91, 31
  %93 = load ptr, ptr %4, align 8, !tbaa !8
  %94 = getelementptr inbounds nuw %struct.mscab_decompressor_p, ptr %93, i32 0, i32 3
  %95 = load i32, ptr %94, align 8, !tbaa !29
  %96 = call ptr @lzxd_init(ptr noundef %87, ptr noundef %88, ptr noundef %89, i32 noundef %92, i32 noundef 0, i32 noundef %95, i64 noundef 0, i8 noundef signext 0)
  %97 = load ptr, ptr %4, align 8, !tbaa !8
  %98 = getelementptr inbounds nuw %struct.mscab_decompressor_p, ptr %97, i32 0, i32 1
  %99 = load ptr, ptr %98, align 8, !tbaa !25
  %100 = getelementptr inbounds nuw %struct.mscabd_decompress_state, ptr %99, i32 0, i32 8
  store ptr %96, ptr %100, align 8, !tbaa !92
  br label %104

101:                                              ; preds = %2
  %102 = load ptr, ptr %4, align 8, !tbaa !8
  %103 = getelementptr inbounds nuw %struct.mscab_decompressor_p, ptr %102, i32 0, i32 7
  store i32 8, ptr %103, align 8, !tbaa !26
  store i32 8, ptr %3, align 4
  store i32 1, ptr %7, align 4
  br label %114

104:                                              ; preds = %79, %57, %35, %16
  %105 = load ptr, ptr %4, align 8, !tbaa !8
  %106 = getelementptr inbounds nuw %struct.mscab_decompressor_p, ptr %105, i32 0, i32 1
  %107 = load ptr, ptr %106, align 8, !tbaa !25
  %108 = getelementptr inbounds nuw %struct.mscabd_decompress_state, ptr %107, i32 0, i32 8
  %109 = load ptr, ptr %108, align 8, !tbaa !92
  %110 = icmp ne ptr %109, null
  %111 = select i1 %110, i32 0, i32 6
  %112 = load ptr, ptr %4, align 8, !tbaa !8
  %113 = getelementptr inbounds nuw %struct.mscab_decompressor_p, ptr %112, i32 0, i32 7
  store i32 %111, ptr %113, align 8, !tbaa !26
  store i32 %111, ptr %3, align 4
  store i32 1, ptr %7, align 4
  br label %114

114:                                              ; preds = %104, %101
  call void @llvm.lifetime.end.p0(i64 8, ptr %6) #4
  %115 = load i32, ptr %3, align 4
  ret i32 %115
}