; Function Attrs: nounwind uwtable
define internal fastcc range(i32 0, 9) i32 @cabd_init_decomp(ptr noundef nonnull %0, i32 noundef %1) unnamed_addr #0 {
  %3 = getelementptr inbounds nuw i8, ptr %0, i64 64
  %4 = load ptr, ptr %3, align 8, !tbaa !22
  %5 = getelementptr inbounds nuw i8, ptr %4, i64 120
  store i32 %1, ptr %5, align 8, !tbaa !55
  %6 = and i32 %1, 15
  switch i32 %6, label %56 [
    i32 0, label %7
    i32 1, label %29
    i32 2, label %37
    i32 3, label %45
  ]

7:                                                ; preds = %2
  %8 = getelementptr inbounds nuw i8, ptr %4, i64 128
  store ptr @noned_decompress, ptr %8, align 8, !tbaa !96
  %9 = getelementptr inbounds nuw i8, ptr %4, i64 32
  %10 = getelementptr inbounds nuw i8, ptr %0, i64 80
  %11 = load i32, ptr %10, align 8, !tbaa !26
  %12 = getelementptr inbounds nuw i8, ptr %4, i64 88
  %13 = load ptr, ptr %12, align 8, !tbaa !3
  %14 = tail call ptr %13(ptr noundef nonnull %9, i64 noundef 40) #8
  %15 = load ptr, ptr %12, align 8, !tbaa !3
  %16 = sext i32 %11 to i64
  %17 = tail call ptr %15(ptr noundef nonnull %9, i64 noundef %16) #8
  %18 = icmp ne ptr %14, null
  %19 = icmp ne ptr %17, null
  %or.cond.i = select i1 %18, i1 %19, i1 false
  br i1 %or.cond.i, label %20, label %25

20:                                               ; preds = %7
  store ptr %9, ptr %14, align 8, !tbaa !56
  %21 = getelementptr inbounds nuw i8, ptr %14, i64 8
  store ptr %0, ptr %21, align 8, !tbaa !131
  %22 = getelementptr inbounds nuw i8, ptr %14, i64 16
  store ptr %0, ptr %22, align 8, !tbaa !132
  %23 = getelementptr inbounds nuw i8, ptr %14, i64 24
  store ptr %17, ptr %23, align 8, !tbaa !58
  %24 = getelementptr inbounds nuw i8, ptr %14, i64 32
  store i32 %11, ptr %24, align 8, !tbaa !133
  br label %noned_init.exit

25:                                               ; preds = %7
  %26 = getelementptr inbounds nuw i8, ptr %4, i64 96
  %27 = load ptr, ptr %26, align 8, !tbaa !42
  tail call void %27(ptr noundef %17) #8
  %28 = load ptr, ptr %26, align 8, !tbaa !42
  tail call void %28(ptr noundef %14) #8
  br label %noned_init.exit

29:                                               ; preds = %2
  %30 = getelementptr inbounds nuw i8, ptr %4, i64 128
  store ptr @mszipd_decompress, ptr %30, align 8, !tbaa !96
  %31 = getelementptr inbounds nuw i8, ptr %4, i64 32
  %32 = getelementptr inbounds nuw i8, ptr %0, i64 80
  %33 = load i32, ptr %32, align 8, !tbaa !26
  %34 = getelementptr inbounds nuw i8, ptr %0, i64 88
  %35 = load i32, ptr %34, align 8, !tbaa !25
  %36 = tail call ptr @mszipd_init(ptr noundef nonnull %31, ptr noundef nonnull %0, ptr noundef nonnull %0, i32 noundef %33, i32 noundef %35) #8
  br label %noned_init.exit

37:                                               ; preds = %2
  %38 = getelementptr inbounds nuw i8, ptr %4, i64 128
  store ptr @qtmd_decompress, ptr %38, align 8, !tbaa !96
  %39 = getelementptr inbounds nuw i8, ptr %4, i64 32
  %40 = lshr i32 %1, 8
  %41 = and i32 %40, 31
  %42 = getelementptr inbounds nuw i8, ptr %0, i64 80
  %43 = load i32, ptr %42, align 8, !tbaa !26
  %44 = tail call ptr @qtmd_init(ptr noundef nonnull %39, ptr noundef nonnull %0, ptr noundef nonnull %0, i32 noundef %41, i32 noundef %43) #8
  br label %noned_init.exit

45:                                               ; preds = %2
  %46 = getelementptr inbounds nuw i8, ptr %4, i64 128
  store ptr @lzxd_decompress, ptr %46, align 8, !tbaa !96
  %47 = getelementptr inbounds nuw i8, ptr %4, i64 32
  %48 = lshr i32 %1, 8
  %49 = and i32 %48, 31
  %50 = getelementptr inbounds nuw i8, ptr %0, i64 80
  %51 = load i32, ptr %50, align 8, !tbaa !26
  %52 = tail call ptr @lzxd_init(ptr noundef nonnull %47, ptr noundef nonnull %0, ptr noundef nonnull %0, i32 noundef %49, i32 noundef 0, i32 noundef %51, i64 noundef 0, i8 noundef signext 0) #8
  br label %noned_init.exit

noned_init.exit:                                  ; preds = %25, %20, %45, %37, %29
  %.sink = phi ptr [ %52, %45 ], [ %44, %37 ], [ %36, %29 ], [ %14, %20 ], [ null, %25 ]
  %53 = load ptr, ptr %3, align 8, !tbaa !22
  %54 = getelementptr inbounds nuw i8, ptr %53, i64 136
  store ptr %.sink, ptr %54, align 8, !tbaa !54
  %.not = icmp eq ptr %.sink, null
  %55 = select i1 %.not, i32 6, i32 0
  br label %56

56:                                               ; preds = %2, %noned_init.exit
  %.sink36 = phi i32 [ %55, %noned_init.exit ], [ 8, %2 ]
  %57 = getelementptr inbounds nuw i8, ptr %0, i64 96
  store i32 %.sink36, ptr %57, align 8, !tbaa !23
  ret i32 %.sink36
}